; Function Attrs: mustprogress uwtable
define internal fastcc void @_ZN3nixL8movePathERKNSt7__cxx1112basic_stringIcSt11char_traitsIcESaIcEEES7_(ptr noundef nonnull align 8 dereferenceable(32) %0, ptr noundef nonnull align 8 dereferenceable(32) %1) unnamed_addr #5 personality ptr @__gxx_personality_v0 {
  %3 = alloca %struct.stat, align 8
  call void @_ZN3nix5lstatERKNSt7__cxx1112basic_stringIcSt11char_traitsIcESaIcEEE(ptr dead_on_unwind nonnull writable sret(%struct.stat) align 8 %3, ptr noundef nonnull align 8 dereferenceable(32) %0)
  %4 = call i32 @geteuid() #30
  %.not = icmp eq i32 %4, 0
  br i1 %.not, label %.critedge, label %5

5:                                                ; preds = %2
  %6 = getelementptr inbounds i8, ptr %3, i64 24
  %7 = load i32, ptr %6, align 8
  %8 = and i32 %7, 61568
  %or.cond = icmp eq i32 %8, 16384
  br i1 %or.cond, label %9, label %.critedge

9:                                                ; preds = %5
  %10 = or disjoint i32 %7, 128
  %11 = load ptr, ptr %0, align 8
  %12 = call i32 @chmod(ptr noundef %11, i32 noundef %10) #30
  %13 = icmp eq i32 %12, -1
  br i1 %13, label %14, label %_ZN3nixL6chmod_ERKNSt7__cxx1112basic_stringIcSt11char_traitsIcESaIcEEEj.exit

14:                                               ; preds = %9
  %15 = call ptr @__cxa_allocate_exception(i64 384) #30
  invoke void @_ZN3nix8SysErrorC2IJA28_cNSt7__cxx1112basic_stringIcSt11char_traitsIcESaIcEEEEEEDpRKT_(ptr noundef nonnull align 8 dereferenceable(380) %15, ptr noundef nonnull align 1 dereferenceable(28) @.str.114, ptr noundef nonnull align 8 dereferenceable(32) %0)
          to label %16 unwind label %17

16:                                               ; preds = %14
  call void @__cxa_throw(ptr nonnull %15, ptr nonnull @_ZTIN3nix8SysErrorE, ptr nonnull @_ZN3nix8SysErrorD2Ev) #31
  unreachable

common.resume:                                    ; preds = %26, %17
  %.sink = phi ptr [ %24, %26 ], [ %15, %17 ]
  %common.resume.op = phi { ptr, i32 } [ %27, %26 ], [ %18, %17 ]
  call void @__cxa_free_exception(ptr %.sink) #30
  resume { ptr, i32 } %common.resume.op

17:                                               ; preds = %14
  %18 = landingpad { ptr, i32 }
          cleanup
  br label %common.resume

_ZN3nixL6chmod_ERKNSt7__cxx1112basic_stringIcSt11char_traitsIcESaIcEEEj.exit: ; preds = %9
  call void @_ZN3nix10renameFileERKNSt7__cxx1112basic_stringIcSt11char_traitsIcESaIcEEES7_(ptr noundef nonnull align 8 dereferenceable(32) %0, ptr noundef nonnull align 8 dereferenceable(32) %1)
  %19 = load i32, ptr %6, align 8
  %20 = load ptr, ptr %1, align 8
  %21 = call i32 @chmod(ptr noundef %20, i32 noundef %19) #30
  %22 = icmp eq i32 %21, -1
  br i1 %22, label %23, label %_ZN3nixL6chmod_ERKNSt7__cxx1112basic_stringIcSt11char_traitsIcESaIcEEEj.exit8

23:                                               ; preds = %_ZN3nixL6chmod_ERKNSt7__cxx1112basic_stringIcSt11char_traitsIcESaIcEEEj.exit
  %24 = call ptr @__cxa_allocate_exception(i64 384) #30
  invoke void @_ZN3nix8SysErrorC2IJA28_cNSt7__cxx1112basic_stringIcSt11char_traitsIcESaIcEEEEEEDpRKT_(ptr noundef nonnull align 8 dereferenceable(380) %24, ptr noundef nonnull align 1 dereferenceable(28) @.str.114, ptr noundef nonnull align 8 dereferenceable(32) %1)
          to label %25 unwind label %26

25:                                               ; preds = %23
  call void @__cxa_throw(ptr nonnull %24, ptr nonnull @_ZTIN3nix8SysErrorE, ptr nonnull @_ZN3nix8SysErrorD2Ev) #31
  unreachable

26:                                               ; preds = %23
  %27 = landingpad { ptr, i32 }
          cleanup
  br label %common.resume

.critedge:                                        ; preds = %5, %2
  call void @_ZN3nix10renameFileERKNSt7__cxx1112basic_stringIcSt11char_traitsIcESaIcEEES7_(ptr noundef nonnull align 8 dereferenceable(32) %0, ptr noundef nonnull align 8 dereferenceable(32) %1)
  br label %_ZN3nixL6chmod_ERKNSt7__cxx1112basic_stringIcSt11char_traitsIcESaIcEEEj.exit8

_ZN3nixL6chmod_ERKNSt7__cxx1112basic_stringIcSt11char_traitsIcESaIcEEEj.exit8: ; preds = %_ZN3nixL6chmod_ERKNSt7__cxx1112basic_stringIcSt11char_traitsIcESaIcEEEj.exit, %.critedge
  ret void
}